target datalayout = "e-m:e-p270:32:32-p271:32:32-p272:64:64-i64:64-i128:128-f80:128-n8:16:32:64-S128"
target triple = "x86_64-pc-linux-gnu"

%struct.decode_as_default_populate = type { ptr, ptr }

; Function Attrs: null_pointer_is_valid sspstrong uwtable
define internal void @decode_proto_add_to_list(ptr noundef %0, ptr noundef %1, ptr noundef %2) #0 {
  %4 = alloca ptr, align 8
  %5 = alloca ptr, align 8
  %6 = alloca ptr, align 8
  %7 = alloca ptr, align 8
  %8 = alloca ptr, align 8
  %9 = alloca i32, align 4
  %10 = alloca ptr, align 8
  %11 = alloca i32, align 4
  store ptr %0, ptr %4, align 8
  store ptr %1, ptr %5, align 8
  store ptr %2, ptr %6, align 8
  call void @llvm.lifetime.start.p0(i64 8, ptr %7) #15
  %12 = load ptr, ptr %6, align 8
  store ptr %12, ptr %7, align 8
  call void @llvm.lifetime.start.p0(i64 8, ptr %8) #15
  call void @llvm.lifetime.start.p0(i64 4, ptr %9) #15
  call void @llvm.lifetime.start.p0(i64 8, ptr %10) #15
  %13 = load ptr, ptr %5, align 8
  store ptr %13, ptr %10, align 8
  %14 = load ptr, ptr %10, align 8
  %15 = call ptr @dissector_handle_get_description(ptr noundef %14)
  store ptr %15, ptr %8, align 8
  %16 = load ptr, ptr %10, align 8
  %17 = call i32 @dissector_handle_get_protocol_index(ptr noundef %16)
  store i32 %17, ptr %9, align 4
  %18 = load i32, ptr %9, align 4
  %19 = icmp sge i32 %18, 0
  br i1 %19, label %20, label %25

20:                                               ; preds = %3
  %21 = load i32, ptr %9, align 4
  %22 = call ptr @find_protocol_by_id(i32 noundef %21)
  %23 = call zeroext i1 @proto_is_protocol_enabled(ptr noundef %22)
  br i1 %23, label %25, label %24

24:                                               ; preds = %20
  store i32 1, ptr %11, align 4
  br label %35

25:                                               ; preds = %20, %3
  %26 = load ptr, ptr %7, align 8
  %27 = getelementptr inbounds nuw %struct.decode_as_default_populate, ptr %26, i32 0, i32 0
  %28 = load ptr, ptr %27, align 8
  %29 = load ptr, ptr %4, align 8
  %30 = load ptr, ptr %8, align 8
  %31 = load ptr, ptr %5, align 8
  %32 = load ptr, ptr %7, align 8
  %33 = getelementptr inbounds nuw %struct.decode_as_default_populate, ptr %32, i32 0, i32 1
  %34 = load ptr, ptr %33, align 8
  call void %28(ptr noundef %29, ptr noundef %30, ptr noundef %31, ptr noundef %34)
  store i32 0, ptr %11, align 4
  br label %35

35:                                               ; preds = %25, %24
  call void @llvm.lifetime.end.p0(i64 8, ptr %10) #15
  call void @llvm.lifetime.end.p0(i64 4, ptr %9) #15
  call void @llvm.lifetime.end.p0(i64 8, ptr %8) #15
  call void @llvm.lifetime.end.p0(i64 8, ptr %7) #15
  %36 = load i32, ptr %11, align 4
  switch i32 %36, label %38 [
    i32 0, label %37
    i32 1, label %37
  ]

37:                                               ; preds = %35, %35
  ret void

38:                                               ; preds = %35
  unreachable
}