; Function Attrs: null_pointer_is_valid sspstrong uwtable
define internal void @decode_proto_add_to_list(ptr noundef %0, ptr noundef %1, ptr noundef readonly captures(none) %2) #0 {
  %4 = tail call ptr @dissector_handle_get_description(ptr noundef %1)
  %5 = tail call i32 @dissector_handle_get_protocol_index(ptr noundef %1)
  %6 = icmp sgt i32 %5, -1
  br i1 %6, label %7, label %10

7:                                                ; preds = %3
  %8 = tail call ptr @find_protocol_by_id(i32 noundef %5)
  %9 = tail call zeroext i1 @proto_is_protocol_enabled(ptr noundef %8)
  br i1 %9, label %10, label %14

10:                                               ; preds = %7, %3
  %11 = load ptr, ptr %2, align 8
  %12 = getelementptr inbounds nuw i8, ptr %2, i64 8
  %13 = load ptr, ptr %12, align 8
  tail call void %11(ptr noundef %0, ptr noundef %4, ptr noundef %1, ptr noundef %13)
  br label %14

14:                                               ; preds = %7, %10
  ret void
}